target datalayout = "e-m:e-p270:32:32-p271:32:32-p272:64:64-i64:64-i128:128-f80:128-n8:16:32:64-S128"
target triple = "x86_64-pc-linux-gnu"

@hf_cigi3_atmosphere_control_atmospheric_model_enable = internal global i32 0, align 4
@hf_cigi3_atmosphere_control_humidity = internal global i32 0, align 4
@hf_cigi3_atmosphere_control_air_temp = internal global i32 0, align 4
@hf_cigi3_atmosphere_control_visibility_range = internal global i32 0, align 4
@hf_cigi3_atmosphere_control_horiz_wind = internal global i32 0, align 4
@hf_cigi3_atmosphere_control_vert_wind = internal global i32 0, align 4
@hf_cigi3_atmosphere_control_wind_direction = internal global i32 0, align 4
@hf_cigi3_atmosphere_control_barometric_pressure = internal global i32 0, align 4
@cigi_byte_order = internal global i32 0, align 4

; Function Attrs: null_pointer_is_valid sspstrong uwtable
define internal i32 @cigi3_add_atmosphere_control(ptr noundef %0, ptr noundef %1, ptr noundef %2, ptr noundef %3) #0 {
  %5 = alloca ptr, align 8
  %6 = alloca ptr, align 8
  %7 = alloca ptr, align 8
  %8 = alloca ptr, align 8
  %9 = alloca i32, align 4
  store ptr %0, ptr %5, align 8
  store ptr %1, ptr %6, align 8
  store ptr %2, ptr %7, align 8
  store ptr %3, ptr %8, align 8
  call void @llvm.lifetime.start.p0(i64 4, ptr %9) #5
  store i32 0, ptr %9, align 4
  %10 = load ptr, ptr %7, align 8
  %11 = load i32, ptr @hf_cigi3_atmosphere_control_atmospheric_model_enable, align 4
  %12 = load ptr, ptr %5, align 8
  %13 = load i32, ptr %9, align 4
  %14 = load i32, ptr @cigi_byte_order, align 4
  %15 = call ptr @proto_tree_add_item(ptr noundef %10, i32 noundef %11, ptr noundef %12, i32 noundef %13, i32 noundef 1, i32 noundef %14)
  %16 = load i32, ptr %9, align 4
  %17 = add i32 %16, 1
  store i32 %17, ptr %9, align 4
  %18 = load ptr, ptr %7, align 8
  %19 = load i32, ptr @hf_cigi3_atmosphere_control_humidity, align 4
  %20 = load ptr, ptr %5, align 8
  %21 = load i32, ptr %9, align 4
  %22 = load i32, ptr @cigi_byte_order, align 4
  %23 = call ptr @proto_tree_add_item(ptr noundef %18, i32 noundef %19, ptr noundef %20, i32 noundef %21, i32 noundef 1, i32 noundef %22)
  %24 = load i32, ptr %9, align 4
  %25 = add i32 %24, 1
  store i32 %25, ptr %9, align 4
  %26 = load ptr, ptr %7, align 8
  %27 = load i32, ptr @hf_cigi3_atmosphere_control_air_temp, align 4
  %28 = load ptr, ptr %5, align 8
  %29 = load i32, ptr %9, align 4
  %30 = load i32, ptr @cigi_byte_order, align 4
  %31 = call ptr @proto_tree_add_item(ptr noundef %26, i32 noundef %27, ptr noundef %28, i32 noundef %29, i32 noundef 4, i32 noundef %30)
  %32 = load i32, ptr %9, align 4
  %33 = add i32 %32, 4
  store i32 %33, ptr %9, align 4
  %34 = load ptr, ptr %7, align 8
  %35 = load i32, ptr @hf_cigi3_atmosphere_control_visibility_range, align 4
  %36 = load ptr, ptr %5, align 8
  %37 = load i32, ptr %9, align 4
  %38 = load i32, ptr @cigi_byte_order, align 4
  %39 = call ptr @proto_tree_add_item(ptr noundef %34, i32 noundef %35, ptr noundef %36, i32 noundef %37, i32 noundef 4, i32 noundef %38)
  %40 = load i32, ptr %9, align 4
  %41 = add i32 %40, 4
  store i32 %41, ptr %9, align 4
  %42 = load ptr, ptr %7, align 8
  %43 = load i32, ptr @hf_cigi3_atmosphere_control_horiz_wind, align 4
  %44 = load ptr, ptr %5, align 8
  %45 = load i32, ptr %9, align 4
  %46 = load i32, ptr @cigi_byte_order, align 4
  %47 = call ptr @proto_tree_add_item(ptr noundef %42, i32 noundef %43, ptr noundef %44, i32 noundef %45, i32 noundef 4, i32 noundef %46)
  %48 = load i32, ptr %9, align 4
  %49 = add i32 %48, 4
  store i32 %49, ptr %9, align 4
  %50 = load ptr, ptr %7, align 8
  %51 = load i32, ptr @hf_cigi3_atmosphere_control_vert_wind, align 4
  %52 = load ptr, ptr %5, align 8
  %53 = load i32, ptr %9, align 4
  %54 = load i32, ptr @cigi_byte_order, align 4
  %55 = call ptr @proto_tree_add_item(ptr noundef %50, i32 noundef %51, ptr noundef %52, i32 noundef %53, i32 noundef 4, i32 noundef %54)
  %56 = load i32, ptr %9, align 4
  %57 = add i32 %56, 4
  store i32 %57, ptr %9, align 4
  %58 = load ptr, ptr %7, align 8
  %59 = load i32, ptr @hf_cigi3_atmosphere_control_wind_direction, align 4
  %60 = load ptr, ptr %5, align 8
  %61 = load i32, ptr %9, align 4
  %62 = load i32, ptr @cigi_byte_order, align 4
  %63 = call ptr @proto_tree_add_item(ptr noundef %58, i32 noundef %59, ptr noundef %60, i32 noundef %61, i32 noundef 4, i32 noundef %62)
  %64 = load i32, ptr %9, align 4
  %65 = add i32 %64, 4
  store i32 %65, ptr %9, align 4
  %66 = load ptr, ptr %7, align 8
  %67 = load i32, ptr @hf_cigi3_atmosphere_control_barometric_pressure, align 4
  %68 = load ptr, ptr %5, align 8
  %69 = load i32, ptr %9, align 4
  %70 = load i32, ptr @cigi_byte_order, align 4
  %71 = call ptr @proto_tree_add_item(ptr noundef %66, i32 noundef %67, ptr noundef %68, i32 noundef %69, i32 noundef 4, i32 noundef %70)
  %72 = load i32, ptr %9, align 4
  %73 = add i32 %72, 8
  store i32 %73, ptr %9, align 4
  %74 = load i32, ptr %9, align 4
  call void @llvm.lifetime.end.p0(i64 4, ptr %9) #5
  ret i32 %74
}